target datalayout = "e-m:e-p270:32:32-p271:32:32-p272:64:64-i64:64-i128:128-f80:128-n8:16:32:64-S128"
target triple = "x86_64-pc-linux-gnu"

%struct.InvalMessageArray = type { ptr, i32 }
%struct.RelFileLocator = type { i32, i32, i32 }
%struct.SharedInvalSmgrMsg = type { i8, i8, i16, %struct.RelFileLocator }
%struct.InvalidationInfo = type { %struct.InvalidationMsgsGroup, i8 }
%struct.InvalidationMsgsGroup = type { [2 x i32], [2 x i32] }
%union.SharedInvalidationMessage = type { %struct.SharedInvalSmgrMsg }

@InvalMessageArrays = internal global [2 x %struct.InvalMessageArray] zeroinitializer, align 16
@inplaceInvalInfo = internal global ptr null, align 8

; Function Attrs: nounwind uwtable
define dso_local i32 @inplaceGetInvalidationMessages(ptr noundef %0, ptr noundef %1) #0 {
  %3 = alloca i32, align 4
  %4 = alloca ptr, align 8
  %5 = alloca ptr, align 8
  %6 = alloca ptr, align 8
  %7 = alloca i32, align 4
  %8 = alloca i32, align 4
  %9 = alloca i32, align 4
  %10 = alloca i32, align 4
  %11 = alloca ptr, align 8
  %12 = alloca i32, align 4
  %13 = alloca ptr, align 8
  store ptr %0, ptr %4, align 8
  store ptr %1, ptr %5, align 8
  call void @llvm.lifetime.start.p0(i64 8, ptr %6) #7
  call void @llvm.lifetime.start.p0(i64 4, ptr %7) #7
  call void @llvm.lifetime.start.p0(i64 4, ptr %8) #7
  %14 = load ptr, ptr @inplaceInvalInfo, align 8
  %15 = icmp eq ptr %14, null
  br i1 %15, label %16, label %19

16:                                               ; preds = %2
  %17 = load ptr, ptr %5, align 8
  store i8 0, ptr %17, align 1
  %18 = load ptr, ptr %4, align 8
  store ptr null, ptr %18, align 8
  store i32 0, ptr %3, align 4
  store i32 1, ptr %9, align 4
  br label %129

19:                                               ; preds = %2
  %20 = load ptr, ptr @inplaceInvalInfo, align 8
  %21 = getelementptr inbounds nuw %struct.InvalidationInfo, ptr %20, i32 0, i32 1
  %22 = load i8, ptr %21, align 4, !range !4, !noundef !5
  %23 = trunc i8 %22 to i1
  %24 = load ptr, ptr %5, align 8
  %25 = zext i1 %23 to i8
  store i8 %25, ptr %24, align 1
  %26 = load ptr, ptr @inplaceInvalInfo, align 8
  %27 = getelementptr inbounds nuw %struct.InvalidationInfo, ptr %26, i32 0, i32 0
  %28 = getelementptr inbounds nuw %struct.InvalidationMsgsGroup, ptr %27, i32 0, i32 1
  %29 = getelementptr inbounds [2 x i32], ptr %28, i64 0, i64 0
  %30 = load i32, ptr %29, align 4
  %31 = load ptr, ptr @inplaceInvalInfo, align 8
  %32 = getelementptr inbounds nuw %struct.InvalidationInfo, ptr %31, i32 0, i32 0
  %33 = getelementptr inbounds nuw %struct.InvalidationMsgsGroup, ptr %32, i32 0, i32 0
  %34 = getelementptr inbounds [2 x i32], ptr %33, i64 0, i64 0
  %35 = load i32, ptr %34, align 4
  %36 = sub i32 %30, %35
  %37 = load ptr, ptr @inplaceInvalInfo, align 8
  %38 = getelementptr inbounds nuw %struct.InvalidationInfo, ptr %37, i32 0, i32 0
  %39 = getelementptr inbounds nuw %struct.InvalidationMsgsGroup, ptr %38, i32 0, i32 1
  %40 = getelementptr inbounds [2 x i32], ptr %39, i64 0, i64 1
  %41 = load i32, ptr %40, align 4
  %42 = load ptr, ptr @inplaceInvalInfo, align 8
  %43 = getelementptr inbounds nuw %struct.InvalidationInfo, ptr %42, i32 0, i32 0
  %44 = getelementptr inbounds nuw %struct.InvalidationMsgsGroup, ptr %43, i32 0, i32 0
  %45 = getelementptr inbounds [2 x i32], ptr %44, i64 0, i64 1
  %46 = load i32, ptr %45, align 4
  %47 = sub i32 %41, %46
  %48 = add i32 %36, %47
  store i32 %48, ptr %7, align 4
  %49 = load i32, ptr %7, align 4
  %50 = sext i32 %49 to i64
  %51 = mul i64 %50, 16
  %52 = call ptr @palloc(i64 noundef %51)
  store ptr %52, ptr %6, align 8
  %53 = load ptr, ptr %4, align 8
  store ptr %52, ptr %53, align 8
  store i32 0, ptr %8, align 4
  br label %54

54:                                               ; preds = %19
  call void @llvm.lifetime.start.p0(i64 4, ptr %10) #7
  %55 = load ptr, ptr @inplaceInvalInfo, align 8
  %56 = getelementptr inbounds nuw %struct.InvalidationInfo, ptr %55, i32 0, i32 0
  %57 = getelementptr inbounds nuw %struct.InvalidationMsgsGroup, ptr %56, i32 0, i32 1
  %58 = getelementptr inbounds [2 x i32], ptr %57, i64 0, i64 0
  %59 = load i32, ptr %58, align 4
  %60 = load ptr, ptr @inplaceInvalInfo, align 8
  %61 = getelementptr inbounds nuw %struct.InvalidationInfo, ptr %60, i32 0, i32 0
  %62 = getelementptr inbounds nuw %struct.InvalidationMsgsGroup, ptr %61, i32 0, i32 0
  %63 = getelementptr inbounds [2 x i32], ptr %62, i64 0, i64 0
  %64 = load i32, ptr %63, align 4
  %65 = sub i32 %59, %64
  store i32 %65, ptr %10, align 4
  %66 = load i32, ptr %10, align 4
  %67 = icmp sgt i32 %66, 0
  br i1 %67, label %68, label %88

68:                                               ; preds = %54
  call void @llvm.lifetime.start.p0(i64 8, ptr %11) #7
  %69 = load ptr, ptr @InvalMessageArrays, align 16
  %70 = load ptr, ptr @inplaceInvalInfo, align 8
  %71 = getelementptr inbounds nuw %struct.InvalidationInfo, ptr %70, i32 0, i32 0
  %72 = getelementptr inbounds nuw %struct.InvalidationMsgsGroup, ptr %71, i32 0, i32 0
  %73 = getelementptr inbounds [2 x i32], ptr %72, i64 0, i64 0
  %74 = load i32, ptr %73, align 4
  %75 = sext i32 %74 to i64
  %76 = getelementptr inbounds %union.SharedInvalidationMessage, ptr %69, i64 %75
  store ptr %76, ptr %11, align 8
  %77 = load ptr, ptr %6, align 8
  %78 = load i32, ptr %8, align 4
  %79 = sext i32 %78 to i64
  %80 = getelementptr inbounds %union.SharedInvalidationMessage, ptr %77, i64 %79
  %81 = load ptr, ptr %11, align 8
  %82 = load i32, ptr %10, align 4
  %83 = sext i32 %82 to i64
  %84 = mul i64 %83, 16
  call void @llvm.memcpy.p0.p0.i64(ptr align 4 %80, ptr align 4 %81, i64 %84, i1 false)
  %85 = load i32, ptr %10, align 4
  %86 = load i32, ptr %8, align 4
  %87 = add i32 %86, %85
  store i32 %87, ptr %8, align 4
  call void @llvm.lifetime.end.p0(i64 8, ptr %11) #7
  br label %88

88:                                               ; preds = %68, %54
  call void @llvm.lifetime.end.p0(i64 4, ptr %10) #7
  br label %89

89:                                               ; preds = %88
  br label %90

90:                                               ; preds = %89
  br label %91

91:                                               ; preds = %90
  call void @llvm.lifetime.start.p0(i64 4, ptr %12) #7
  %92 = load ptr, ptr @inplaceInvalInfo, align 8
  %93 = getelementptr inbounds nuw %struct.InvalidationInfo, ptr %92, i32 0, i32 0
  %94 = getelementptr inbounds nuw %struct.InvalidationMsgsGroup, ptr %93, i32 0, i32 1
  %95 = getelementptr inbounds [2 x i32], ptr %94, i64 0, i64 1
  %96 = load i32, ptr %95, align 4
  %97 = load ptr, ptr @inplaceInvalInfo, align 8
  %98 = getelementptr inbounds nuw %struct.InvalidationInfo, ptr %97, i32 0, i32 0
  %99 = getelementptr inbounds nuw %struct.InvalidationMsgsGroup, ptr %98, i32 0, i32 0
  %100 = getelementptr inbounds [2 x i32], ptr %99, i64 0, i64 1
  %101 = load i32, ptr %100, align 4
  %102 = sub i32 %96, %101
  store i32 %102, ptr %12, align 4
  %103 = load i32, ptr %12, align 4
  %104 = icmp sgt i32 %103, 0
  br i1 %104, label %105, label %125

105:                                              ; preds = %91
  call void @llvm.lifetime.start.p0(i64 8, ptr %13) #7
  %106 = load ptr, ptr getelementptr inbounds ([2 x %struct.InvalMessageArray], ptr @InvalMessageArrays, i64 0, i64 1), align 16
  %107 = load ptr, ptr @inplaceInvalInfo, align 8
  %108 = getelementptr inbounds nuw %struct.InvalidationInfo, ptr %107, i32 0, i32 0
  %109 = getelementptr inbounds nuw %struct.InvalidationMsgsGroup, ptr %108, i32 0, i32 0
  %110 = getelementptr inbounds [2 x i32], ptr %109, i64 0, i64 1
  %111 = load i32, ptr %110, align 4
  %112 = sext i32 %111 to i64
  %113 = getelementptr inbounds %union.SharedInvalidationMessage, ptr %106, i64 %112
  store ptr %113, ptr %13, align 8
  %114 = load ptr, ptr %6, align 8
  %115 = load i32, ptr %8, align 4
  %116 = sext i32 %115 to i64
  %117 = getelementptr inbounds %union.SharedInvalidationMessage, ptr %114, i64 %116
  %118 = load ptr, ptr %13, align 8
  %119 = load i32, ptr %12, align 4
  %120 = sext i32 %119 to i64
  %121 = mul i64 %120, 16
  call void @llvm.memcpy.p0.p0.i64(ptr align 4 %117, ptr align 4 %118, i64 %121, i1 false)
  %122 = load i32, ptr %12, align 4
  %123 = load i32, ptr %8, align 4
  %124 = add i32 %123, %122
  store i32 %124, ptr %8, align 4
  call void @llvm.lifetime.end.p0(i64 8, ptr %13) #7
  br label %125

125:                                              ; preds = %105, %91
  call void @llvm.lifetime.end.p0(i64 4, ptr %12) #7
  br label %126

126:                                              ; preds = %125
  br label %127

127:                                              ; preds = %126
  %128 = load i32, ptr %8, align 4
  store i32 %128, ptr %3, align 4
  store i32 1, ptr %9, align 4
  br label %129

129:                                              ; preds = %127, %16
  call void @llvm.lifetime.end.p0(i64 4, ptr %8) #7
  call void @llvm.lifetime.end.p0(i64 4, ptr %7) #7
  call void @llvm.lifetime.end.p0(i64 8, ptr %6) #7
  %130 = load i32, ptr %3, align 4
  ret i32 %130
}