; Function Attrs: nounwind uwtable
define dso_local range(i32 0, -1) i32 @inplaceGetInvalidationMessages(ptr noundef writeonly captures(none) initializes((0, 8)) %0, ptr noundef writeonly captures(none) initializes((0, 1)) %1) local_unnamed_addr #0 {
  %3 = load ptr, ptr @inplaceInvalInfo, align 8
  %4 = icmp eq ptr %3, null
  br i1 %4, label %5, label %6

5:                                                ; preds = %2
  store i8 0, ptr %1, align 1
  store ptr null, ptr %0, align 8
  br label %50

6:                                                ; preds = %2
  %7 = getelementptr inbounds nuw i8, ptr %3, i64 16
  %8 = load i8, ptr %7, align 4, !range !11, !noundef !12
  store i8 %8, ptr %1, align 1
  %9 = getelementptr inbounds nuw i8, ptr %3, i64 8
  %10 = load i32, ptr %9, align 4
  %11 = load i32, ptr %3, align 4
  %12 = getelementptr inbounds nuw i8, ptr %3, i64 12
  %13 = load i32, ptr %12, align 4
  %14 = getelementptr inbounds nuw i8, ptr %3, i64 4
  %15 = load i32, ptr %14, align 4
  %16 = add i32 %10, %13
  %17 = add i32 %11, %15
  %18 = sub i32 %16, %17
  %19 = sext i32 %18 to i64
  %20 = shl nsw i64 %19, 4
  %21 = tail call ptr @palloc(i64 noundef %20) #7
  store ptr %21, ptr %0, align 8
  %22 = load ptr, ptr @inplaceInvalInfo, align 8
  %23 = getelementptr inbounds nuw i8, ptr %22, i64 8
  %24 = load i32, ptr %23, align 4
  %25 = load i32, ptr %22, align 4
  %26 = sub i32 %24, %25
  %27 = icmp sgt i32 %26, 0
  br i1 %27, label %28, label %34

28:                                               ; preds = %6
  %29 = load ptr, ptr @InvalMessageArrays.0, align 16
  %30 = sext i32 %25 to i64
  %31 = getelementptr inbounds %union.SharedInvalidationMessage, ptr %29, i64 %30
  %32 = zext nneg i32 %26 to i64
  %33 = shl nuw nsw i64 %32, 4
  tail call void @llvm.memcpy.p0.p0.i64(ptr align 4 %21, ptr align 4 %31, i64 %33, i1 false)
  br label %34

34:                                               ; preds = %28, %6
  %.020 = phi i32 [ %26, %28 ], [ 0, %6 ]
  %35 = getelementptr inbounds nuw i8, ptr %22, i64 12
  %36 = load i32, ptr %35, align 4
  %37 = getelementptr inbounds nuw i8, ptr %22, i64 4
  %38 = load i32, ptr %37, align 4
  %39 = sub i32 %36, %38
  %40 = icmp sgt i32 %39, 0
  br i1 %40, label %41, label %50

41:                                               ; preds = %34
  %42 = load ptr, ptr @InvalMessageArrays.2, align 16
  %43 = sext i32 %38 to i64
  %44 = getelementptr inbounds %union.SharedInvalidationMessage, ptr %42, i64 %43
  %45 = zext nneg i32 %.020 to i64
  %46 = getelementptr inbounds nuw %union.SharedInvalidationMessage, ptr %21, i64 %45
  %47 = zext nneg i32 %39 to i64
  %48 = shl nuw nsw i64 %47, 4
  tail call void @llvm.memcpy.p0.p0.i64(ptr align 4 %46, ptr align 4 %44, i64 %48, i1 false)
  %49 = add nuw i32 %39, %.020
  br label %50

50:                                               ; preds = %34, %41, %5
  %.0 = phi i32 [ 0, %5 ], [ %49, %41 ], [ %.020, %34 ]
  ret i32 %.0
}